---
triple:          'arm64-apple-darwin'
binary-path:     test_allocator
relocations:
  - { offsetInCU: 0x2F2F, offset: 0x2F2F, size: 0x8, addend: 0x0, symName: __ZNSt3__124__put_character_sequenceB7v160006IcNS_11char_traitsIcEEEERNS_13basic_ostreamIT_T0_EES7_PKS4_m, symObjAddr: 0x270, symBinAddr: 0x100003A0C, symSize: 0x1EC }
  - { offsetInCU: 0x4A1E, offset: 0x4A1E, size: 0x8, addend: 0x0, symName: __ZNSt3__1lsB7v160006INS_11char_traitsIcEEEERNS_13basic_ostreamIcT_EES6_PKc, symObjAddr: 0x190, symBinAddr: 0x10000392C, symSize: 0x48 }
  - { offsetInCU: 0x4A64, offset: 0x4A64, size: 0x8, addend: 0x0, symName: __ZNSt3__116__pad_and_outputB7v160006IcNS_11char_traitsIcEEEENS_19ostreambuf_iteratorIT_T0_EES6_PKS4_S8_S8_RNS_8ios_baseES4_, symObjAddr: 0x4AC, symBinAddr: 0x100003C48, symSize: 0x240 }
  - { offsetInCU: 0x4B33, offset: 0x4B33, size: 0x8, addend: 0x0, symName: __ZNSt3__119__debug_db_insert_cB7v160006INS_12basic_stringIcNS_11char_traitsIcEENS_9allocatorIcEEEEEEvPT_, symObjAddr: 0x96C, symBinAddr: 0x100004108, symSize: 0x10 }
  - { offsetInCU: 0x4B64, offset: 0x4B64, size: 0x8, addend: 0x0, symName: __ZNSt3__112__to_addressB7v160006IcEEPT_S2_, symObjAddr: 0xA38, symBinAddr: 0x1000041D4, symSize: 0x14 }
  - { offsetInCU: 0x4BCC, offset: 0x4BCC, size: 0x8, addend: 0x0, symName: __ZNSt3__19use_facetB7v160006INS_5ctypeIcEEEERKT_RKNS_6localeE, symObjAddr: 0xCF0, symBinAddr: 0x10000448C, symSize: 0x2C }
  - { offsetInCU: 0x509B, offset: 0x509B, size: 0x8, addend: 0x0, symName: __ZNSt3__118__constexpr_strlenB7v160006EPKc, symObjAddr: 0xD88, symBinAddr: 0x100004524, symSize: 0x24 }
  - { offsetInCU: 0x760B, offset: 0x760B, size: 0x8, addend: 0x0, symName: __Z9my_callocmm, symObjAddr: 0x0, symBinAddr: 0x10000379C, symSize: 0x15C }
  - { offsetInCU: 0x76EA, offset: 0x76EA, size: 0x8, addend: 0x0, symName: __ZNSt3__110lock_guardINS_5mutexEEC1B7v160006ERS1_, symObjAddr: 0x15C, symBinAddr: 0x1000038F8, symSize: 0x34 }
  - { offsetInCU: 0x7720, offset: 0x7720, size: 0x8, addend: 0x0, symName: __ZNSt3__110lock_guardINS_5mutexEED1B7v160006Ev, symObjAddr: 0x1D8, symBinAddr: 0x100003974, symSize: 0x2C }
  - { offsetInCU: 0x7748, offset: 0x7748, size: 0x8, addend: 0x0, symName: __ZNSt3__110lock_guardINS_5mutexEEC2B7v160006ERS1_, symObjAddr: 0x204, symBinAddr: 0x1000039A0, symSize: 0x3C }
  - { offsetInCU: 0x777E, offset: 0x777E, size: 0x8, addend: 0x0, symName: __ZNSt3__110lock_guardINS_5mutexEED2B7v160006Ev, symObjAddr: 0x240, symBinAddr: 0x1000039DC, symSize: 0x30 }
  - { offsetInCU: 0x77A6, offset: 0x77A6, size: 0x8, addend: 0x0, symName: __ZNSt3__111char_traitsIcE6lengthEPKc, symObjAddr: 0x45C, symBinAddr: 0x100003BF8, symSize: 0x34 }
  - { offsetInCU: 0x77E6, offset: 0x77E6, size: 0x8, addend: 0x0, symName: __ZNKSt3__113basic_ostreamIcNS_11char_traitsIcEEE6sentrycvbB7v160006Ev, symObjAddr: 0x490, symBinAddr: 0x100003C2C, symSize: 0x1C }
  - { offsetInCU: 0x780A, offset: 0x780A, size: 0x8, addend: 0x0, symName: __ZNSt3__119ostreambuf_iteratorIcNS_11char_traitsIcEEEC1B7v160006ERNS_13basic_ostreamIcS2_EE, symObjAddr: 0x6EC, symBinAddr: 0x100003E88, symSize: 0x34 }
  - { offsetInCU: 0x7840, offset: 0x7840, size: 0x8, addend: 0x0, symName: __ZNKSt3__18ios_base5flagsB7v160006Ev, symObjAddr: 0x720, symBinAddr: 0x100003EBC, symSize: 0x18 }
  - { offsetInCU: 0x7866, offset: 0x7866, size: 0x8, addend: 0x0, symName: __ZNKSt3__19basic_iosIcNS_11char_traitsIcEEE4fillB7v160006Ev, symObjAddr: 0x738, symBinAddr: 0x100003ED4, symSize: 0x64 }
  - { offsetInCU: 0x788C, offset: 0x788C, size: 0x8, addend: 0x0, symName: __ZNKSt3__119ostreambuf_iteratorIcNS_11char_traitsIcEEE6failedB7v160006Ev, symObjAddr: 0x79C, symBinAddr: 0x100003F38, symSize: 0x24 }
  - { offsetInCU: 0x78B0, offset: 0x78B0, size: 0x8, addend: 0x0, symName: __ZNSt3__19basic_iosIcNS_11char_traitsIcEEE8setstateB7v160006Ej, symObjAddr: 0x7C0, symBinAddr: 0x100003F5C, symSize: 0x2C }
  - { offsetInCU: 0x78E3, offset: 0x78E3, size: 0x8, addend: 0x0, symName: __ZNKSt3__18ios_base5widthB7v160006Ev, symObjAddr: 0x7F8, symBinAddr: 0x100003F94, symSize: 0x18 }
  - { offsetInCU: 0x7909, offset: 0x7909, size: 0x8, addend: 0x0, symName: __ZNSt3__115basic_streambufIcNS_11char_traitsIcEEE5sputnB7v160006EPKcl, symObjAddr: 0x810, symBinAddr: 0x100003FAC, symSize: 0x3C }
  - { offsetInCU: 0x7949, offset: 0x7949, size: 0x8, addend: 0x0, symName: __ZNSt3__112basic_stringIcNS_11char_traitsIcEENS_9allocatorIcEEEC1B7v160006Emc, symObjAddr: 0x84C, symBinAddr: 0x100003FE8, symSize: 0x3C }
  - { offsetInCU: 0x798F, offset: 0x798F, size: 0x8, addend: 0x0, symName: __ZNSt3__112basic_stringIcNS_11char_traitsIcEENS_9allocatorIcEEE4dataB7v160006Ev, symObjAddr: 0x888, symBinAddr: 0x100004024, symSize: 0x28 }
  - { offsetInCU: 0x79B3, offset: 0x79B3, size: 0x8, addend: 0x0, symName: __ZNSt3__18ios_base5widthB7v160006El, symObjAddr: 0x8B0, symBinAddr: 0x10000404C, symSize: 0x2C }
  - { offsetInCU: 0x79F7, offset: 0x79F7, size: 0x8, addend: 0x0, symName: __ZNSt3__112basic_stringIcNS_11char_traitsIcEENS_9allocatorIcEEEC2B7v160006Emc, symObjAddr: 0x8DC, symBinAddr: 0x100004078, symSize: 0x54 }
  - { offsetInCU: 0x7A42, offset: 0x7A42, size: 0x8, addend: 0x0, symName: __ZNSt3__117__compressed_pairINS_12basic_stringIcNS_11char_traitsIcEENS_9allocatorIcEEE5__repES5_EC1B7v160006INS_18__default_init_tagESA_EEOT_OT0_, symObjAddr: 0x930, symBinAddr: 0x1000040CC, symSize: 0x3C }
  - { offsetInCU: 0x7A98, offset: 0x7A98, size: 0x8, addend: 0x0, symName: __ZNSt3__117__compressed_pairINS_12basic_stringIcNS_11char_traitsIcEENS_9allocatorIcEEE5__repES5_EC2B7v160006INS_18__default_init_tagESA_EEOT_OT0_, symObjAddr: 0x97C, symBinAddr: 0x100004118, symSize: 0x3C }
  - { offsetInCU: 0x7AEE, offset: 0x7AEE, size: 0x8, addend: 0x0, symName: __ZNSt3__122__compressed_pair_elemINS_12basic_stringIcNS_11char_traitsIcEENS_9allocatorIcEEE5__repELi0ELb0EEC2B7v160006ENS_18__default_init_tagE, symObjAddr: 0x9B8, symBinAddr: 0x100004154, symSize: 0x14 }
  - { offsetInCU: 0x7B20, offset: 0x7B20, size: 0x8, addend: 0x0, symName: __ZNSt3__122__compressed_pair_elemINS_9allocatorIcEELi1ELb1EEC2B7v160006ENS_18__default_init_tagE, symObjAddr: 0x9CC, symBinAddr: 0x100004168, symSize: 0x2C }
  - { offsetInCU: 0x7B52, offset: 0x7B52, size: 0x8, addend: 0x0, symName: __ZNSt3__19allocatorIcEC2B7v160006Ev, symObjAddr: 0x9F8, symBinAddr: 0x100004194, symSize: 0x2C }
  - { offsetInCU: 0x7B7A, offset: 0x7B7A, size: 0x8, addend: 0x0, symName: __ZNSt3__116__non_trivial_ifILb1ENS_9allocatorIcEEEC2B7v160006Ev, symObjAddr: 0xA24, symBinAddr: 0x1000041C0, symSize: 0x14 }
  - { offsetInCU: 0x7BA2, offset: 0x7BA2, size: 0x8, addend: 0x0, symName: __ZNSt3__112basic_stringIcNS_11char_traitsIcEENS_9allocatorIcEEE13__get_pointerB7v160006Ev, symObjAddr: 0xA4C, symBinAddr: 0x1000041E8, symSize: 0x54 }
  - { offsetInCU: 0x7BC6, offset: 0x7BC6, size: 0x8, addend: 0x0, symName: __ZNKSt3__112basic_stringIcNS_11char_traitsIcEENS_9allocatorIcEEE9__is_longB7v160006Ev, symObjAddr: 0xAA0, symBinAddr: 0x10000423C, symSize: 0x38 }
  - { offsetInCU: 0x7BEA, offset: 0x7BEA, size: 0x8, addend: 0x0, symName: __ZNSt3__112basic_stringIcNS_11char_traitsIcEENS_9allocatorIcEEE18__get_long_pointerB7v160006Ev, symObjAddr: 0xAD8, symBinAddr: 0x100004274, symSize: 0x28 }
  - { offsetInCU: 0x7C0E, offset: 0x7C0E, size: 0x8, addend: 0x0, symName: __ZNSt3__112basic_stringIcNS_11char_traitsIcEENS_9allocatorIcEEE19__get_short_pointerB7v160006Ev, symObjAddr: 0xB00, symBinAddr: 0x10000429C, symSize: 0x28 }
  - { offsetInCU: 0x7C32, offset: 0x7C32, size: 0x8, addend: 0x0, symName: __ZNKSt3__117__compressed_pairINS_12basic_stringIcNS_11char_traitsIcEENS_9allocatorIcEEE5__repES5_E5firstB7v160006Ev, symObjAddr: 0xB28, symBinAddr: 0x1000042C4, symSize: 0x24 }
  - { offsetInCU: 0x7C56, offset: 0x7C56, size: 0x8, addend: 0x0, symName: __ZNKSt3__122__compressed_pair_elemINS_12basic_stringIcNS_11char_traitsIcEENS_9allocatorIcEEE5__repELi0ELb0EE5__getB7v160006Ev, symObjAddr: 0xB4C, symBinAddr: 0x1000042E8, symSize: 0x14 }
  - { offsetInCU: 0x7C7A, offset: 0x7C7A, size: 0x8, addend: 0x0, symName: __ZNSt3__117__compressed_pairINS_12basic_stringIcNS_11char_traitsIcEENS_9allocatorIcEEE5__repES5_E5firstB7v160006Ev, symObjAddr: 0xB60, symBinAddr: 0x1000042FC, symSize: 0x24 }
  - { offsetInCU: 0x7C9E, offset: 0x7C9E, size: 0x8, addend: 0x0, symName: __ZNSt3__122__compressed_pair_elemINS_12basic_stringIcNS_11char_traitsIcEENS_9allocatorIcEEE5__repELi0ELb0EE5__getB7v160006Ev, symObjAddr: 0xB84, symBinAddr: 0x100004320, symSize: 0x14 }
  - { offsetInCU: 0x7CC2, offset: 0x7CC2, size: 0x8, addend: 0x0, symName: __ZNSt3__114pointer_traitsIPcE10pointer_toB7v160006ERc, symObjAddr: 0xB98, symBinAddr: 0x100004334, symSize: 0x14 }
  - { offsetInCU: 0x7CE4, offset: 0x7CE4, size: 0x8, addend: 0x0, symName: __ZNSt3__119ostreambuf_iteratorIcNS_11char_traitsIcEEEC2B7v160006ERNS_13basic_ostreamIcS2_EE, symObjAddr: 0xBAC, symBinAddr: 0x100004348, symSize: 0x54 }
  - { offsetInCU: 0x7D1A, offset: 0x7D1A, size: 0x8, addend: 0x0, symName: __ZNKSt3__19basic_iosIcNS_11char_traitsIcEEE5rdbufB7v160006Ev, symObjAddr: 0xC00, symBinAddr: 0x10000439C, symSize: 0x24 }
  - { offsetInCU: 0x7D40, offset: 0x7D40, size: 0x8, addend: 0x0, symName: __ZNKSt3__18ios_base5rdbufB7v160006Ev, symObjAddr: 0xC24, symBinAddr: 0x1000043C0, symSize: 0x18 }
  - { offsetInCU: 0x7D64, offset: 0x7D64, size: 0x8, addend: 0x0, symName: __ZNSt3__111char_traitsIcE11eq_int_typeEii, symObjAddr: 0xC3C, symBinAddr: 0x1000043D8, symSize: 0x28 }
  - { offsetInCU: 0x7D94, offset: 0x7D94, size: 0x8, addend: 0x0, symName: __ZNSt3__111char_traitsIcE3eofEv, symObjAddr: 0xC64, symBinAddr: 0x100004400, symSize: 0x8 }
  - { offsetInCU: 0x7DA7, offset: 0x7DA7, size: 0x8, addend: 0x0, symName: __ZNKSt3__19basic_iosIcNS_11char_traitsIcEEE5widenB7v160006Ec, symObjAddr: 0xC6C, symBinAddr: 0x100004408, symSize: 0x84 }
  - { offsetInCU: 0x7E13, offset: 0x7E13, size: 0x8, addend: 0x0, symName: __ZNKSt3__15ctypeIcE5widenB7v160006Ec, symObjAddr: 0xD1C, symBinAddr: 0x1000044B8, symSize: 0x38 }
  - { offsetInCU: 0x7E46, offset: 0x7E46, size: 0x8, addend: 0x0, symName: __ZNSt3__18ios_base8setstateB7v160006Ej, symObjAddr: 0xD54, symBinAddr: 0x1000044F0, symSize: 0x34 }
  - { offsetInCU: 0x2936, offset: 0xA801, size: 0x8, addend: 0x0, symName: __Z16my_free_internalPv, symObjAddr: 0x0, symBinAddr: 0x100004548, symSize: 0xA8 }
  - { offsetInCU: 0x296C, offset: 0xA837, size: 0x8, addend: 0x0, symName: __Z7my_freePv, symObjAddr: 0xF0, symBinAddr: 0x1000045F0, symSize: 0x60 }
  - { offsetInCU: 0x3F, offset: 0xA8AC, size: 0x8, addend: 0x0, symName: _heap_mutex, symObjAddr: 0xF70, symBinAddr: 0x10000C000, symSize: 0x0 }
  - { offsetInCU: 0xB79, offset: 0xB3E6, size: 0x8, addend: 0x0, symName: _free_list, symObjAddr: 0x178F8, symBinAddr: 0x10000C040, symSize: 0x0 }
  - { offsetInCU: 0x2932, offset: 0xD19F, size: 0x8, addend: 0x0, symName: __Z18my_malloc_internalm, symObjAddr: 0x0, symBinAddr: 0x100004650, symSize: 0x1E8 }
  - { offsetInCU: 0x2996, offset: 0xD203, size: 0x8, addend: 0x0, symName: __Z9my_mallocm, symObjAddr: 0x230, symBinAddr: 0x100004838, symSize: 0x68 }
  - { offsetInCU: 0x2903, offset: 0xFB40, size: 0x8, addend: 0x0, symName: __Z12handle_errorPKc, symObjAddr: 0x0, symBinAddr: 0x1000048E0, symSize: 0x20 }
  - { offsetInCU: 0x292B, offset: 0xFB68, size: 0x8, addend: 0x0, symName: __Z22request_memory_from_osm, symObjAddr: 0x20, symBinAddr: 0x100004900, symSize: 0xC4 }
  - { offsetInCU: 0x26, offset: 0xFBE4, size: 0x8, addend: 0x0, symName: __Z10my_reallocPvm, symObjAddr: 0x0, symBinAddr: 0x1000049C4, symSize: 0x1AC }
  - { offsetInCU: 0x2901, offset: 0x124BF, size: 0x8, addend: 0x0, symName: __Z10my_reallocPvm, symObjAddr: 0x0, symBinAddr: 0x1000049C4, symSize: 0x1AC }
  - { offsetInCU: 0x4761, offset: 0x16C84, size: 0x8, addend: 0x0, symName: __ZNSt3__1neB7v160006IPPvEEbRKNS_11__wrap_iterIT_EES7_, symObjAddr: 0x6D0, symBinAddr: 0x1000051F8, symSize: 0x34 }
  - { offsetInCU: 0x47A4, offset: 0x16CC7, size: 0x8, addend: 0x0, symName: __ZNSt3__1eqB7v160006IPPvEEbRKNS_11__wrap_iterIT_EES7_, symObjAddr: 0x844, symBinAddr: 0x10000536C, symSize: 0x48 }
  - { offsetInCU: 0x47E7, offset: 0x16D0A, size: 0x8, addend: 0x0, symName: __ZNSt3__119__debug_db_insert_cB7v160006INS_6vectorIPvNS_9allocatorIS2_EEEEEEvPT_, symObjAddr: 0x1474, symBinAddr: 0x100005460, symSize: 0x10 }
  - { offsetInCU: 0x4818, offset: 0x16D3B, size: 0x8, addend: 0x0, symName: __ZNSt3__118__debug_db_erase_cB7v160006INS_6vectorIPvNS_9allocatorIS2_EEEEEEvPT_, symObjAddr: 0x1738, symBinAddr: 0x100005724, symSize: 0x10 }
  - { offsetInCU: 0x4849, offset: 0x16D6C, size: 0x8, addend: 0x0, symName: __ZNSt3__112__to_addressB7v160006IPvEEPT_S3_, symObjAddr: 0x187C, symBinAddr: 0x100005868, symSize: 0x14 }
  - { offsetInCU: 0x487E, offset: 0x16DA1, size: 0x8, addend: 0x0, symName: __ZNSt3__119__libcpp_deallocateB7v160006EPvmm, symObjAddr: 0x199C, symBinAddr: 0x100005988, symSize: 0x60 }
  - { offsetInCU: 0x48E5, offset: 0x16E08, size: 0x8, addend: 0x0, symName: __ZNSt3__124__is_overaligned_for_newB7v160006Em, symObjAddr: 0x19FC, symBinAddr: 0x1000059E8, symSize: 0x20 }
  - { offsetInCU: 0x4914, offset: 0x16E37, size: 0x8, addend: 0x0, symName: __ZNSt3__127__do_deallocate_handle_sizeB7v160006IJSt11align_val_tEEEvPvmDpT_, symObjAddr: 0x1A1C, symBinAddr: 0x100005A08, symSize: 0x30 }
  - { offsetInCU: 0x496A, offset: 0x16E8D, size: 0x8, addend: 0x0, symName: __ZNSt3__127__do_deallocate_handle_sizeB7v160006IJEEEvPvmDpT_, symObjAddr: 0x1A4C, symBinAddr: 0x100005A38, symSize: 0x28 }
  - { offsetInCU: 0x49AA, offset: 0x16ECD, size: 0x8, addend: 0x0, symName: __ZNSt3__124__libcpp_operator_deleteB7v160006IJPvSt11align_val_tEEEvDpT_, symObjAddr: 0x1A74, symBinAddr: 0x100005A60, symSize: 0x2C }
  - { offsetInCU: 0x49F7, offset: 0x16F1A, size: 0x8, addend: 0x0, symName: __ZNSt3__124__libcpp_operator_deleteB7v160006IJPvEEEvDpT_, symObjAddr: 0x1AA0, symBinAddr: 0x100005A8C, symSize: 0x24 }
  - { offsetInCU: 0x4A2F, offset: 0x16F52, size: 0x8, addend: 0x0, symName: __ZNSt3__13maxB7v160006ImEERKT_S3_S3_, symObjAddr: 0x2104, symBinAddr: 0x1000060F0, symSize: 0x2C }
  - { offsetInCU: 0x4A72, offset: 0x16F95, size: 0x8, addend: 0x0, symName: __ZNSt3__13minB7v160006ImEERKT_S3_S3_, symObjAddr: 0x2130, symBinAddr: 0x10000611C, symSize: 0x2C }
  - { offsetInCU: 0x4C9F, offset: 0x171C2, size: 0x8, addend: 0x0, symName: __ZNSt3__13minB7v160006ImNS_6__lessImmEEEERKT_S5_S5_T0_, symObjAddr: 0x21BC, symBinAddr: 0x1000061A8, symSize: 0x54 }
  - { offsetInCU: 0x4D34, offset: 0x17257, size: 0x8, addend: 0x0, symName: __ZNSt3__120__throw_length_errorB7v160006EPKc, symObjAddr: 0x2298, symBinAddr: 0x100006284, symSize: 0x64 }
  - { offsetInCU: 0x4D5D, offset: 0x17280, size: 0x8, addend: 0x0, symName: __ZNSt3__13maxB7v160006ImNS_6__lessImmEEEERKT_S5_S5_T0_, symObjAddr: 0x237C, symBinAddr: 0x100006368, symSize: 0x54 }
  - { offsetInCU: 0x4DB7, offset: 0x172DA, size: 0x8, addend: 0x0, symName: __ZNSt3__119__allocate_at_leastB7v160006INS_9allocatorIPvEEEENS_19__allocation_resultINS_16allocator_traitsIT_E7pointerEEERS6_m, symObjAddr: 0x24E0, symBinAddr: 0x1000064CC, symSize: 0x40 }
  - { offsetInCU: 0x4DFA, offset: 0x1731D, size: 0x8, addend: 0x0, symName: __ZNSt3__117__libcpp_allocateB7v160006Emm, symObjAddr: 0x2664, symBinAddr: 0x100006650, symSize: 0x60 }
  - { offsetInCU: 0x4E55, offset: 0x17378, size: 0x8, addend: 0x0, symName: __ZNSt3__121__libcpp_operator_newB7v160006IJmSt11align_val_tEEEPvDpT_, symObjAddr: 0x26C4, symBinAddr: 0x1000066B0, symSize: 0x2C }
  - { offsetInCU: 0x4EA5, offset: 0x173C8, size: 0x8, addend: 0x0, symName: __ZNSt3__121__libcpp_operator_newB7v160006IJmEEEPvDpT_, symObjAddr: 0x26F0, symBinAddr: 0x1000066DC, symSize: 0x24 }
  - { offsetInCU: 0x4EE0, offset: 0x17403, size: 0x8, addend: 0x0, symName: __ZNSt3__142__uninitialized_allocator_move_if_noexceptB7v160006INS_9allocatorIPvEENS_16reverse_iteratorIPS2_EES6_S2_vEET1_RT_T0_SA_S7_, symObjAddr: 0x2778, symBinAddr: 0x100006764, symSize: 0x78 }
  - { offsetInCU: 0x4F5F, offset: 0x17482, size: 0x8, addend: 0x0, symName: __ZNSt3__14swapB7v160006IPPvEENS_9enable_ifIXaasr21is_move_constructibleIT_EE5valuesr18is_move_assignableIS4_EE5valueEvE4typeERS4_S7_, symObjAddr: 0x283C, symBinAddr: 0x100006828, symSize: 0x3C }
  - { offsetInCU: 0x4FB0, offset: 0x174D3, size: 0x8, addend: 0x0, symName: __ZNSt3__125__debug_db_invalidate_allB7v160006INS_6vectorIPvNS_9allocatorIS2_EEEEEEvPT_, symObjAddr: 0x2924, symBinAddr: 0x100006910, symSize: 0x10 }
  - { offsetInCU: 0x4FE1, offset: 0x17504, size: 0x8, addend: 0x0, symName: __ZNSt3__14moveB7v160006INS_16reverse_iteratorIPPvEES4_EET0_T_S6_S5_, symObjAddr: 0x2934, symBinAddr: 0x100006920, symSize: 0x78 }
  - { offsetInCU: 0x503B, offset: 0x1755E, size: 0x8, addend: 0x0, symName: __ZNSt3__16__moveB7v160006INS_17_ClassicAlgPolicyENS_16reverse_iteratorIPPvEES5_S5_EENS_4pairIT0_T2_EES7_T1_S8_, symObjAddr: 0x29AC, symBinAddr: 0x100006998, symSize: 0x64 }
  - { offsetInCU: 0x50A7, offset: 0x175CA, size: 0x8, addend: 0x0, symName: __ZNSt3__123__dispatch_copy_or_moveB7v160006INS_17_ClassicAlgPolicyENS_11__move_loopIS1_EENS_14__move_trivialENS_16reverse_iteratorIPPvEES8_S8_EENS_4pairIT2_T4_EESA_T3_SB_, symObjAddr: 0x2A10, symBinAddr: 0x1000069FC, symSize: 0x64 }
  - { offsetInCU: 0x5125, offset: 0x17648, size: 0x8, addend: 0x0, symName: __ZNSt3__121__unwrap_and_dispatchB7v160006INS_10__overloadINS_11__move_loopINS_17_ClassicAlgPolicyEEENS_14__move_trivialEEENS_16reverse_iteratorIPPvEESA_SA_Li0EEENS_4pairIT0_T2_EESC_T1_SD_, symObjAddr: 0x2A74, symBinAddr: 0x100006A60, symSize: 0x12C }
  - { offsetInCU: 0x51B6, offset: 0x176D9, size: 0x8, addend: 0x0, symName: __ZNSt3__114__unwrap_rangeB7v160006INS_16reverse_iteratorIPPvEES4_EENS_4pairIT0_S6_EET_S8_, symObjAddr: 0x2BA0, symBinAddr: 0x100006B8C, symSize: 0x84 }
  - { offsetInCU: 0x5332, offset: 0x17855, size: 0x8, addend: 0x0, symName: __ZNSt3__113__unwrap_iterB7v160006INS_16reverse_iteratorIPPvEENS_18__unwrap_iter_implIS4_Lb0EEELi0EEEDTclsrT0_8__unwrapclsr3stdE7declvalIT_EEEES8_, symObjAddr: 0x2CC4, symBinAddr: 0x100006CB0, symSize: 0x44 }
  - { offsetInCU: 0x5377, offset: 0x1789A, size: 0x8, addend: 0x0, symName: __ZNSt3__19make_pairB7v160006INS_16reverse_iteratorIPPvEES4_EENS_4pairINS_18__unwrap_ref_decayIT_E4typeENS6_IT0_E4typeEEEOS7_OSA_, symObjAddr: 0x2D08, symBinAddr: 0x100006CF4, symSize: 0x38 }
  - { offsetInCU: 0x53C6, offset: 0x178E9, size: 0x8, addend: 0x0, symName: __ZNSt3__114__rewrap_rangeB7v160006INS_16reverse_iteratorIPPvEES4_EET_S5_T0_, symObjAddr: 0x2D40, symBinAddr: 0x100006D2C, symSize: 0x5C }
  - { offsetInCU: 0x5412, offset: 0x17935, size: 0x8, addend: 0x0, symName: __ZNSt3__113__rewrap_iterB7v160006INS_16reverse_iteratorIPPvEES4_NS_18__unwrap_iter_implIS4_Lb0EEEEET_S7_T0_, symObjAddr: 0x2D9C, symBinAddr: 0x100006D88, symSize: 0x74 }
  - { offsetInCU: 0x5467, offset: 0x1798A, size: 0x8, addend: 0x0, symName: __ZNSt3__1neB7v160006IPPvS2_EEbRKNS_16reverse_iteratorIT_EERKNS3_IT0_EE, symObjAddr: 0x2E10, symBinAddr: 0x100006DFC, symSize: 0x48 }
  - { offsetInCU: 0x577C, offset: 0x17C9F, size: 0x8, addend: 0x0, symName: __ZSt28__throw_bad_array_new_lengthB7v160006v, symObjAddr: 0x2630, symBinAddr: 0x10000661C, symSize: 0x34 }
  - { offsetInCU: 0x5AC9, offset: 0x17FEC, size: 0x8, addend: 0x0, symName: __ZNSt3__16vectorIPvNS_9allocatorIS1_EEE26__swap_out_circular_bufferERNS_14__split_bufferIS1_RS3_EE, symObjAddr: 0x1F44, symBinAddr: 0x100005F30, symSize: 0x118 }
  - { offsetInCU: 0x7876, offset: 0x19D99, size: 0x8, addend: 0x0, symName: __Z14test_my_mallocv, symObjAddr: 0x0, symBinAddr: 0x100004B70, symSize: 0xB0 }
  - { offsetInCU: 0x789E, offset: 0x19DC1, size: 0x8, addend: 0x0, symName: __Z14test_my_callocv, symObjAddr: 0xF8, symBinAddr: 0x100004C20, symSize: 0x1AC }
  - { offsetInCU: 0x7938, offset: 0x19E5B, size: 0x8, addend: 0x0, symName: __Z15test_my_reallocv, symObjAddr: 0x2A4, symBinAddr: 0x100004DCC, symSize: 0x118 }
  - { offsetInCU: 0x797C, offset: 0x19E9F, size: 0x8, addend: 0x0, symName: __Z22test_realloc_zero_sizev, symObjAddr: 0x3BC, symBinAddr: 0x100004EE4, symSize: 0x90 }
  - { offsetInCU: 0x79B2, offset: 0x19ED5, size: 0x8, addend: 0x0, symName: __Z20test_mass_allocationv, symObjAddr: 0x44C, symBinAddr: 0x100004F74, symSize: 0x18C }
  - { offsetInCU: 0x7A56, offset: 0x19F79, size: 0x8, addend: 0x0, symName: __ZNSt3__16vectorIPvNS_9allocatorIS1_EEEC1B7v160006Ev, symObjAddr: 0x5D8, symBinAddr: 0x100005100, symSize: 0x2C }
  - { offsetInCU: 0x7A7D, offset: 0x19FA0, size: 0x8, addend: 0x0, symName: __ZNSt3__16vectorIPvNS_9allocatorIS1_EEE9push_backB7v160006ERKS1_, symObjAddr: 0x604, symBinAddr: 0x10000512C, symSize: 0x6C }
  - { offsetInCU: 0x7AB2, offset: 0x19FD5, size: 0x8, addend: 0x0, symName: __ZNSt3__16vectorIPvNS_9allocatorIS1_EEE5beginB7v160006Ev, symObjAddr: 0x670, symBinAddr: 0x100005198, symSize: 0x30 }
  - { offsetInCU: 0x7AD8, offset: 0x19FFB, size: 0x8, addend: 0x0, symName: __ZNSt3__16vectorIPvNS_9allocatorIS1_EEE3endB7v160006Ev, symObjAddr: 0x6A0, symBinAddr: 0x1000051C8, symSize: 0x30 }
  - { offsetInCU: 0x7AFF, offset: 0x1A022, size: 0x8, addend: 0x0, symName: __ZNKSt3__111__wrap_iterIPPvEdeB7v160006Ev, symObjAddr: 0x704, symBinAddr: 0x10000522C, symSize: 0x18 }
  - { offsetInCU: 0x7B23, offset: 0x1A046, size: 0x8, addend: 0x0, symName: __ZNSt3__111__wrap_iterIPPvEppB7v160006Ev, symObjAddr: 0x71C, symBinAddr: 0x100005244, symSize: 0x20 }
  - { offsetInCU: 0x7B47, offset: 0x1A06A, size: 0x8, addend: 0x0, symName: __ZNSt3__16vectorIPvNS_9allocatorIS1_EEED1B7v160006Ev, symObjAddr: 0x73C, symBinAddr: 0x100005264, symSize: 0x2C }
  - { offsetInCU: 0x7B6F, offset: 0x1A092, size: 0x8, addend: 0x0, symName: __Z16test_double_freev, symObjAddr: 0x768, symBinAddr: 0x100005290, symSize: 0x5C }
  - { offsetInCU: 0x7B97, offset: 0x1A0BA, size: 0x8, addend: 0x0, symName: __Z21test_allocation_suitev, symObjAddr: 0x7C4, symBinAddr: 0x1000052EC, symSize: 0x54 }
  - { offsetInCU: 0x7BB1, offset: 0x1A0D4, size: 0x8, addend: 0x0, symName: _main, symObjAddr: 0x818, symBinAddr: 0x100005340, symSize: 0x2C }
  - { offsetInCU: 0x7BCB, offset: 0x1A0EE, size: 0x8, addend: 0x0, symName: __ZNKSt3__111__wrap_iterIPPvE4baseB7v160006Ev, symObjAddr: 0x88C, symBinAddr: 0x1000053B4, symSize: 0x18 }
  - { offsetInCU: 0x7BF4, offset: 0x1A117, size: 0x8, addend: 0x0, symName: __ZNSt3__16vectorIPvNS_9allocatorIS1_EEEC2B7v160006Ev, symObjAddr: 0x13E0, symBinAddr: 0x1000053CC, symSize: 0x58 }
  - { offsetInCU: 0x7C21, offset: 0x1A144, size: 0x8, addend: 0x0, symName: __ZNSt3__117__compressed_pairIPPvNS_9allocatorIS1_EEEC1B7v160006IDnNS_18__default_init_tagEEEOT_OT0_, symObjAddr: 0x1438, symBinAddr: 0x100005424, symSize: 0x3C }
  - { offsetInCU: 0x7C77, offset: 0x1A19A, size: 0x8, addend: 0x0, symName: __ZNSt3__117__compressed_pairIPPvNS_9allocatorIS1_EEEC2B7v160006IDnNS_18__default_init_tagEEEOT_OT0_, symObjAddr: 0x1484, symBinAddr: 0x100005470, symSize: 0x40 }
  - { offsetInCU: 0x7CCD, offset: 0x1A1F0, size: 0x8, addend: 0x0, symName: __ZNSt3__122__compressed_pair_elemIPPvLi0ELb0EEC2B7v160006IDnvEEOT_, symObjAddr: 0x14C4, symBinAddr: 0x1000054B0, symSize: 0x1C }
  - { offsetInCU: 0x7D0E, offset: 0x1A231, size: 0x8, addend: 0x0, symName: __ZNSt3__122__compressed_pair_elemINS_9allocatorIPvEELi1ELb1EEC2B7v160006ENS_18__default_init_tagE, symObjAddr: 0x14E0, symBinAddr: 0x1000054CC, symSize: 0x2C }
  - { offsetInCU: 0x7D40, offset: 0x1A263, size: 0x8, addend: 0x0, symName: __ZNSt3__19allocatorIPvEC2B7v160006Ev, symObjAddr: 0x150C, symBinAddr: 0x1000054F8, symSize: 0x2C }
  - { offsetInCU: 0x7D68, offset: 0x1A28B, size: 0x8, addend: 0x0, symName: __ZNSt3__116__non_trivial_ifILb1ENS_9allocatorIPvEEEC2B7v160006Ev, symObjAddr: 0x1538, symBinAddr: 0x100005524, symSize: 0x14 }
  - { offsetInCU: 0x7D90, offset: 0x1A2B3, size: 0x8, addend: 0x0, symName: __ZNSt3__16vectorIPvNS_9allocatorIS1_EEED2B7v160006Ev, symObjAddr: 0x154C, symBinAddr: 0x100005538, symSize: 0x44 }
  - { offsetInCU: 0x7DB8, offset: 0x1A2DB, size: 0x8, addend: 0x0, symName: __ZNSt3__16vectorIPvNS_9allocatorIS1_EEE16__destroy_vectorC1ERS4_, symObjAddr: 0x1590, symBinAddr: 0x10000557C, symSize: 0x34 }
  - { offsetInCU: 0x7DEF, offset: 0x1A312, size: 0x8, addend: 0x0, symName: __ZNSt3__16vectorIPvNS_9allocatorIS1_EEE16__destroy_vectorclB7v160006Ev, symObjAddr: 0x15C4, symBinAddr: 0x1000055B0, symSize: 0x9C }
  - { offsetInCU: 0x7E13, offset: 0x1A336, size: 0x8, addend: 0x0, symName: __ZNSt3__16vectorIPvNS_9allocatorIS1_EEE16__destroy_vectorC2ERS4_, symObjAddr: 0x1660, symBinAddr: 0x10000564C, symSize: 0x20 }
  - { offsetInCU: 0x7E4A, offset: 0x1A36D, size: 0x8, addend: 0x0, symName: __ZNKSt3__16vectorIPvNS_9allocatorIS1_EEE17__annotate_deleteB7v160006Ev, symObjAddr: 0x1680, symBinAddr: 0x10000566C, symSize: 0xB8 }
  - { offsetInCU: 0x7E6E, offset: 0x1A391, size: 0x8, addend: 0x0, symName: __ZNSt3__16vectorIPvNS_9allocatorIS1_EEE7__clearB7v160006Ev, symObjAddr: 0x1748, symBinAddr: 0x100005734, symSize: 0x28 }
  - { offsetInCU: 0x7E92, offset: 0x1A3B5, size: 0x8, addend: 0x0, symName: __ZNSt3__116allocator_traitsINS_9allocatorIPvEEE10deallocateB7v160006ERS3_PS2_m, symObjAddr: 0x1770, symBinAddr: 0x10000575C, symSize: 0x34 }
  - { offsetInCU: 0x7ED3, offset: 0x1A3F6, size: 0x8, addend: 0x0, symName: __ZNSt3__16vectorIPvNS_9allocatorIS1_EEE7__allocB7v160006Ev, symObjAddr: 0x17A4, symBinAddr: 0x100005790, symSize: 0x28 }
  - { offsetInCU: 0x7EF7, offset: 0x1A41A, size: 0x8, addend: 0x0, symName: __ZNKSt3__16vectorIPvNS_9allocatorIS1_EEE8capacityB7v160006Ev, symObjAddr: 0x17CC, symBinAddr: 0x1000057B8, symSize: 0x40 }
  - { offsetInCU: 0x7F1B, offset: 0x1A43E, size: 0x8, addend: 0x0, symName: __ZNKSt3__16vectorIPvNS_9allocatorIS1_EEE31__annotate_contiguous_containerB7v160006EPKvS6_S6_S6_, symObjAddr: 0x180C, symBinAddr: 0x1000057F8, symSize: 0x20 }
  - { offsetInCU: 0x7F6F, offset: 0x1A492, size: 0x8, addend: 0x0, symName: __ZNKSt3__16vectorIPvNS_9allocatorIS1_EEE4dataB7v160006Ev, symObjAddr: 0x182C, symBinAddr: 0x100005818, symSize: 0x28 }
  - { offsetInCU: 0x7F93, offset: 0x1A4B6, size: 0x8, addend: 0x0, symName: __ZNKSt3__16vectorIPvNS_9allocatorIS1_EEE4sizeB7v160006Ev, symObjAddr: 0x1854, symBinAddr: 0x100005840, symSize: 0x28 }
  - { offsetInCU: 0x7FB7, offset: 0x1A4DA, size: 0x8, addend: 0x0, symName: __ZNSt3__16vectorIPvNS_9allocatorIS1_EEE22__base_destruct_at_endB7v160006EPS1_, symObjAddr: 0x1890, symBinAddr: 0x10000587C, symSize: 0x8C }
  - { offsetInCU: 0x7FF9, offset: 0x1A51C, size: 0x8, addend: 0x0, symName: __ZNSt3__116allocator_traitsINS_9allocatorIPvEEE7destroyB7v160006IS2_vEEvRS3_PT_, symObjAddr: 0x191C, symBinAddr: 0x100005908, symSize: 0x2C }
  - { offsetInCU: 0x8036, offset: 0x1A559, size: 0x8, addend: 0x0, symName: __ZNSt3__19allocatorIPvE7destroyB7v160006EPS1_, symObjAddr: 0x1948, symBinAddr: 0x100005934, symSize: 0x14 }
  - { offsetInCU: 0x8068, offset: 0x1A58B, size: 0x8, addend: 0x0, symName: __ZNSt3__19allocatorIPvE10deallocateB7v160006EPS1_m, symObjAddr: 0x195C, symBinAddr: 0x100005948, symSize: 0x40 }
  - { offsetInCU: 0x80A8, offset: 0x1A5CB, size: 0x8, addend: 0x0, symName: __ZNSt3__117__compressed_pairIPPvNS_9allocatorIS1_EEE6secondB7v160006Ev, symObjAddr: 0x1AC4, symBinAddr: 0x100005AB0, symSize: 0x24 }
  - { offsetInCU: 0x80CC, offset: 0x1A5EF, size: 0x8, addend: 0x0, symName: __ZNSt3__122__compressed_pair_elemINS_9allocatorIPvEELi1ELb1EE5__getB7v160006Ev, symObjAddr: 0x1AE8, symBinAddr: 0x100005AD4, symSize: 0x14 }
  - { offsetInCU: 0x80F0, offset: 0x1A613, size: 0x8, addend: 0x0, symName: __ZNKSt3__16vectorIPvNS_9allocatorIS1_EEE9__end_capB7v160006Ev, symObjAddr: 0x1AFC, symBinAddr: 0x100005AE8, symSize: 0x28 }
  - { offsetInCU: 0x8114, offset: 0x1A637, size: 0x8, addend: 0x0, symName: __ZNKSt3__117__compressed_pairIPPvNS_9allocatorIS1_EEE5firstB7v160006Ev, symObjAddr: 0x1B24, symBinAddr: 0x100005B10, symSize: 0x24 }
  - { offsetInCU: 0x8138, offset: 0x1A65B, size: 0x8, addend: 0x0, symName: __ZNKSt3__122__compressed_pair_elemIPPvLi0ELb0EE5__getB7v160006Ev, symObjAddr: 0x1B48, symBinAddr: 0x100005B34, symSize: 0x14 }
  - { offsetInCU: 0x815C, offset: 0x1A67F, size: 0x8, addend: 0x0, symName: __ZNSt3__16vectorIPvNS_9allocatorIS1_EEE9__end_capB7v160006Ev, symObjAddr: 0x1B5C, symBinAddr: 0x100005B48, symSize: 0x28 }
  - { offsetInCU: 0x8180, offset: 0x1A6A3, size: 0x8, addend: 0x0, symName: __ZNSt3__16vectorIPvNS_9allocatorIS1_EEE22__construct_one_at_endB7v160006IJRKS1_EEEvDpOT_, symObjAddr: 0x1B84, symBinAddr: 0x100005B70, symSize: 0x90 }
  - { offsetInCU: 0x81CE, offset: 0x1A6F1, size: 0x8, addend: 0x0, symName: __ZNSt3__16vectorIPvNS_9allocatorIS1_EEE21__push_back_slow_pathIRKS1_EEvOT_, symObjAddr: 0x1C14, symBinAddr: 0x100005C00, symSize: 0xD8 }
  - { offsetInCU: 0x822B, offset: 0x1A74E, size: 0x8, addend: 0x0, symName: __ZNSt3__117__compressed_pairIPPvNS_9allocatorIS1_EEE5firstB7v160006Ev, symObjAddr: 0x1CEC, symBinAddr: 0x100005CD8, symSize: 0x24 }
  - { offsetInCU: 0x824F, offset: 0x1A772, size: 0x8, addend: 0x0, symName: __ZNSt3__122__compressed_pair_elemIPPvLi0ELb0EE5__getB7v160006Ev, symObjAddr: 0x1D10, symBinAddr: 0x100005CFC, symSize: 0x14 }
  - { offsetInCU: 0x828C, offset: 0x1A7AF, size: 0x8, addend: 0x0, symName: __ZNSt3__16vectorIPvNS_9allocatorIS1_EEE21_ConstructTransactionC1B7v160006ERS4_m, symObjAddr: 0x1D24, symBinAddr: 0x100005D10, symSize: 0x3C }
  - { offsetInCU: 0x82D2, offset: 0x1A7F5, size: 0x8, addend: 0x0, symName: __ZNSt3__116allocator_traitsINS_9allocatorIPvEEE9constructB7v160006IS2_JRKS2_EvEEvRS3_PT_DpOT0_, symObjAddr: 0x1D60, symBinAddr: 0x100005D4C, symSize: 0x34 }
  - { offsetInCU: 0x832B, offset: 0x1A84E, size: 0x8, addend: 0x0, symName: __ZNSt3__16vectorIPvNS_9allocatorIS1_EEE21_ConstructTransactionD1B7v160006Ev, symObjAddr: 0x1D94, symBinAddr: 0x100005D80, symSize: 0x2C }
  - { offsetInCU: 0x8353, offset: 0x1A876, size: 0x8, addend: 0x0, symName: __ZNSt3__16vectorIPvNS_9allocatorIS1_EEE21_ConstructTransactionC2B7v160006ERS4_m, symObjAddr: 0x1DC0, symBinAddr: 0x100005DAC, symSize: 0x44 }
  - { offsetInCU: 0x8399, offset: 0x1A8BC, size: 0x8, addend: 0x0, symName: __ZNSt3__19allocatorIPvE9constructB7v160006IS1_JRKS1_EEEvPT_DpOT0_, symObjAddr: 0x1E04, symBinAddr: 0x100005DF0, symSize: 0x28 }
  - { offsetInCU: 0x83EF, offset: 0x1A912, size: 0x8, addend: 0x0, symName: __ZNSt3__16vectorIPvNS_9allocatorIS1_EEE21_ConstructTransactionD2B7v160006Ev, symObjAddr: 0x1E2C, symBinAddr: 0x100005E18, symSize: 0x20 }
  - { offsetInCU: 0x8416, offset: 0x1A939, size: 0x8, addend: 0x0, symName: __ZNKSt3__16vectorIPvNS_9allocatorIS1_EEE11__recommendB7v160006Em, symObjAddr: 0x1E4C, symBinAddr: 0x100005E38, symSize: 0xB4 }
  - { offsetInCU: 0x846A, offset: 0x1A98D, size: 0x8, addend: 0x0, symName: __ZNSt3__114__split_bufferIPvRNS_9allocatorIS1_EEEC1EmmS4_, symObjAddr: 0x1F00, symBinAddr: 0x100005EEC, symSize: 0x44 }
  - { offsetInCU: 0x84BF, offset: 0x1A9E2, size: 0x8, addend: 0x0, symName: __ZNSt3__114__split_bufferIPvRNS_9allocatorIS1_EEED1Ev, symObjAddr: 0x205C, symBinAddr: 0x100006048, symSize: 0x2C }
  - { offsetInCU: 0x84E9, offset: 0x1AA0C, size: 0x8, addend: 0x0, symName: __ZNKSt3__16vectorIPvNS_9allocatorIS1_EEE8max_sizeEv, symObjAddr: 0x2088, symBinAddr: 0x100006074, symSize: 0x60 }
  - { offsetInCU: 0x8510, offset: 0x1AA33, size: 0x8, addend: 0x0, symName: __ZNKSt3__16vectorIPvNS_9allocatorIS1_EEE20__throw_length_errorB7v160006Ev, symObjAddr: 0x20E8, symBinAddr: 0x1000060D4, symSize: 0x1C }
  - { offsetInCU: 0x853E, offset: 0x1AA61, size: 0x8, addend: 0x0, symName: __ZNSt3__116allocator_traitsINS_9allocatorIPvEEE8max_sizeB7v160006IS3_vEEmRKS3_, symObjAddr: 0x215C, symBinAddr: 0x100006148, symSize: 0x24 }
  - { offsetInCU: 0x856C, offset: 0x1AA8F, size: 0x8, addend: 0x0, symName: __ZNKSt3__16vectorIPvNS_9allocatorIS1_EEE7__allocB7v160006Ev, symObjAddr: 0x2180, symBinAddr: 0x10000616C, symSize: 0x28 }
  - { offsetInCU: 0x8590, offset: 0x1AAB3, size: 0x8, addend: 0x0, symName: __ZNSt3__114numeric_limitsIlE3maxB7v160006Ev, symObjAddr: 0x21A8, symBinAddr: 0x100006194, symSize: 0x14 }
  - { offsetInCU: 0x85B8, offset: 0x1AADB, size: 0x8, addend: 0x0, symName: __ZNKSt3__16__lessImmEclB7v160006ERKmS3_, symObjAddr: 0x2210, symBinAddr: 0x1000061FC, symSize: 0x34 }
  - { offsetInCU: 0x85F8, offset: 0x1AB1B, size: 0x8, addend: 0x0, symName: __ZNKSt3__19allocatorIPvE8max_sizeB7v160006Ev, symObjAddr: 0x2244, symBinAddr: 0x100006230, symSize: 0x14 }
  - { offsetInCU: 0x861C, offset: 0x1AB3F, size: 0x8, addend: 0x0, symName: __ZNKSt3__117__compressed_pairIPPvNS_9allocatorIS1_EEE6secondB7v160006Ev, symObjAddr: 0x2258, symBinAddr: 0x100006244, symSize: 0x24 }
  - { offsetInCU: 0x8640, offset: 0x1AB63, size: 0x8, addend: 0x0, symName: __ZNKSt3__122__compressed_pair_elemINS_9allocatorIPvEELi1ELb1EE5__getB7v160006Ev, symObjAddr: 0x227C, symBinAddr: 0x100006268, symSize: 0x14 }
  - { offsetInCU: 0x8664, offset: 0x1AB87, size: 0x8, addend: 0x0, symName: __ZNSt3__123__libcpp_numeric_limitsIlLb1EE3maxB7v160006Ev, symObjAddr: 0x2290, symBinAddr: 0x10000627C, symSize: 0x8 }
  - { offsetInCU: 0x8677, offset: 0x1AB9A, size: 0x8, addend: 0x0, symName: __ZNSt12length_errorC1B7v160006EPKc, symObjAddr: 0x22FC, symBinAddr: 0x1000062E8, symSize: 0x34 }
  - { offsetInCU: 0x86AD, offset: 0x1ABD0, size: 0x8, addend: 0x0, symName: __ZNSt12length_errorC2B7v160006EPKc, symObjAddr: 0x2330, symBinAddr: 0x10000631C, symSize: 0x4C }
  - { offsetInCU: 0x86E3, offset: 0x1AC06, size: 0x8, addend: 0x0, symName: __ZNSt3__114__split_bufferIPvRNS_9allocatorIS1_EEEC2EmmS4_, symObjAddr: 0x23D0, symBinAddr: 0x1000063BC, symSize: 0xD4 }
  - { offsetInCU: 0x8756, offset: 0x1AC79, size: 0x8, addend: 0x0, symName: __ZNSt3__117__compressed_pairIPPvRNS_9allocatorIS1_EEEC1B7v160006IDnS5_EEOT_OT0_, symObjAddr: 0x24A4, symBinAddr: 0x100006490, symSize: 0x3C }
  - { offsetInCU: 0x87AC, offset: 0x1ACCF, size: 0x8, addend: 0x0, symName: __ZNSt3__114__split_bufferIPvRNS_9allocatorIS1_EEE7__allocB7v160006Ev, symObjAddr: 0x2520, symBinAddr: 0x10000650C, symSize: 0x28 }
  - { offsetInCU: 0x87D0, offset: 0x1ACF3, size: 0x8, addend: 0x0, symName: __ZNSt3__114__split_bufferIPvRNS_9allocatorIS1_EEE9__end_capB7v160006Ev, symObjAddr: 0x2548, symBinAddr: 0x100006534, symSize: 0x28 }
  - { offsetInCU: 0x87F4, offset: 0x1AD17, size: 0x8, addend: 0x0, symName: __ZNSt3__117__compressed_pairIPPvRNS_9allocatorIS1_EEEC2B7v160006IDnS5_EEOT_OT0_, symObjAddr: 0x2570, symBinAddr: 0x10000655C, symSize: 0x48 }
  - { offsetInCU: 0x884A, offset: 0x1AD6D, size: 0x8, addend: 0x0, symName: __ZNSt3__122__compressed_pair_elemIRNS_9allocatorIPvEELi1ELb0EEC2B7v160006IS4_vEEOT_, symObjAddr: 0x25B8, symBinAddr: 0x1000065A4, symSize: 0x20 }
  - { offsetInCU: 0x888B, offset: 0x1ADAE, size: 0x8, addend: 0x0, symName: __ZNSt3__19allocatorIPvE8allocateB7v160006Em, symObjAddr: 0x25D8, symBinAddr: 0x1000065C4, symSize: 0x58 }
  - { offsetInCU: 0x88BD, offset: 0x1ADE0, size: 0x8, addend: 0x0, symName: __ZNSt3__117__compressed_pairIPPvRNS_9allocatorIS1_EEE6secondB7v160006Ev, symObjAddr: 0x2714, symBinAddr: 0x100006700, symSize: 0x28 }
  - { offsetInCU: 0x88E1, offset: 0x1AE04, size: 0x8, addend: 0x0, symName: __ZNSt3__122__compressed_pair_elemIRNS_9allocatorIPvEELi1ELb0EE5__getB7v160006Ev, symObjAddr: 0x273C, symBinAddr: 0x100006728, symSize: 0x18 }
  - { offsetInCU: 0x8905, offset: 0x1AE28, size: 0x8, addend: 0x0, symName: __ZNSt3__117__compressed_pairIPPvRNS_9allocatorIS1_EEE5firstB7v160006Ev, symObjAddr: 0x2754, symBinAddr: 0x100006740, symSize: 0x24 }
  - { offsetInCU: 0x8929, offset: 0x1AE4C, size: 0x8, addend: 0x0, symName: __ZNSt3__116reverse_iteratorIPPvEC1B7v160006ES2_, symObjAddr: 0x27F0, symBinAddr: 0x1000067DC, symSize: 0x34 }
  - { offsetInCU: 0x895F, offset: 0x1AE82, size: 0x8, addend: 0x0, symName: __ZNKSt3__116reverse_iteratorIPPvE4baseB7v160006Ev, symObjAddr: 0x2824, symBinAddr: 0x100006810, symSize: 0x18 }
  - { offsetInCU: 0x8983, offset: 0x1AEA6, size: 0x8, addend: 0x0, symName: __ZNKSt3__16vectorIPvNS_9allocatorIS1_EEE14__annotate_newB7v160006Em, symObjAddr: 0x2878, symBinAddr: 0x100006864, symSize: 0xAC }
  - { offsetInCU: 0x89D9, offset: 0x1AEFC, size: 0x8, addend: 0x0, symName: __ZNKSt3__111__move_loopINS_17_ClassicAlgPolicyEEclB7v160006INS_16reverse_iteratorIPPvEES7_S7_EENS_4pairIT_T1_EES9_T0_SA_, symObjAddr: 0x2C24, symBinAddr: 0x100006C10, symSize: 0xA0 }
  - { offsetInCU: 0x8A47, offset: 0x1AF6A, size: 0x8, addend: 0x0, symName: __ZNSt3__18_IterOpsINS_17_ClassicAlgPolicyEE11__iter_moveB7v160006IRNS_16reverse_iteratorIPPvEEEENS_9enable_ifIXsr12is_referenceIDTdeclsr3stdE7declvalIRT_EEEEE5valueEDTclsr3stdE4movedeclsr3stdE7declvalISB_EEEEE4typeEOSA_, symObjAddr: 0x2E58, symBinAddr: 0x100006E44, symSize: 0x28 }
  - { offsetInCU: 0x8A72, offset: 0x1AF95, size: 0x8, addend: 0x0, symName: __ZNKSt3__116reverse_iteratorIPPvEdeB7v160006Ev, symObjAddr: 0x2E80, symBinAddr: 0x100006E6C, symSize: 0x28 }
  - { offsetInCU: 0x8AA4, offset: 0x1AFC7, size: 0x8, addend: 0x0, symName: __ZNSt3__116reverse_iteratorIPPvEppB7v160006Ev, symObjAddr: 0x2EA8, symBinAddr: 0x100006E94, symSize: 0x20 }
  - { offsetInCU: 0x8AC8, offset: 0x1AFEB, size: 0x8, addend: 0x0, symName: __ZNSt3__18_IterOpsINS_17_ClassicAlgPolicyEE25__validate_iter_referenceB7v160006IRNS_16reverse_iteratorIPPvEEEEvv, symObjAddr: 0x2EC8, symBinAddr: 0x100006EB4, symSize: 0x4 }
  - { offsetInCU: 0x8AE5, offset: 0x1B008, size: 0x8, addend: 0x0, symName: __ZNSt3__118__unwrap_iter_implINS_16reverse_iteratorIPPvEELb0EE8__unwrapB7v160006ES4_, symObjAddr: 0x2ECC, symBinAddr: 0x100006EB8, symSize: 0x24 }
  - { offsetInCU: 0x8B0C, offset: 0x1B02F, size: 0x8, addend: 0x0, symName: __ZNSt3__14pairINS_16reverse_iteratorIPPvEES4_EC1B7v160006IS4_S4_LS2_0EEEOT_OT0_, symObjAddr: 0x2EF0, symBinAddr: 0x100006EDC, symSize: 0x3C }
  - { offsetInCU: 0x8B69, offset: 0x1B08C, size: 0x8, addend: 0x0, symName: __ZNSt3__14pairINS_16reverse_iteratorIPPvEES4_EC2B7v160006IS4_S4_LS2_0EEEOT_OT0_, symObjAddr: 0x2F2C, symBinAddr: 0x100006F18, symSize: 0x34 }
  - { offsetInCU: 0x8BC6, offset: 0x1B0E9, size: 0x8, addend: 0x0, symName: __ZNSt3__118__unwrap_iter_implINS_16reverse_iteratorIPPvEELb0EE8__rewrapB7v160006ES4_S4_, symObjAddr: 0x2F60, symBinAddr: 0x100006F4C, symSize: 0x2C }
  - { offsetInCU: 0x8BF2, offset: 0x1B115, size: 0x8, addend: 0x0, symName: __ZNSt3__116reverse_iteratorIPPvEC2B7v160006ES2_, symObjAddr: 0x2F8C, symBinAddr: 0x100006F78, symSize: 0x28 }
  - { offsetInCU: 0x8C28, offset: 0x1B14B, size: 0x8, addend: 0x0, symName: __ZNSt3__114__split_bufferIPvRNS_9allocatorIS1_EEED2Ev, symObjAddr: 0x2FB4, symBinAddr: 0x100006FA0, symSize: 0x8C }
  - { offsetInCU: 0x8C53, offset: 0x1B176, size: 0x8, addend: 0x0, symName: __ZNSt3__114__split_bufferIPvRNS_9allocatorIS1_EEE5clearB7v160006Ev, symObjAddr: 0x3040, symBinAddr: 0x10000702C, symSize: 0x28 }
  - { offsetInCU: 0x8C77, offset: 0x1B19A, size: 0x8, addend: 0x0, symName: __ZNKSt3__114__split_bufferIPvRNS_9allocatorIS1_EEE8capacityB7v160006Ev, symObjAddr: 0x3068, symBinAddr: 0x100007054, symSize: 0x40 }
  - { offsetInCU: 0x8C9B, offset: 0x1B1BE, size: 0x8, addend: 0x0, symName: __ZNSt3__114__split_bufferIPvRNS_9allocatorIS1_EEE17__destruct_at_endB7v160006EPS1_, symObjAddr: 0x30A8, symBinAddr: 0x100007094, symSize: 0x2C }
  - { offsetInCU: 0x8CCC, offset: 0x1B1EF, size: 0x8, addend: 0x0, symName: __ZNSt3__114__split_bufferIPvRNS_9allocatorIS1_EEE17__destruct_at_endB7v160006EPS1_NS_17integral_constantIbLb0EEE, symObjAddr: 0x30D4, symBinAddr: 0x1000070C0, symSize: 0x80 }
  - { offsetInCU: 0x8D0B, offset: 0x1B22E, size: 0x8, addend: 0x0, symName: __ZNKSt3__114__split_bufferIPvRNS_9allocatorIS1_EEE9__end_capB7v160006Ev, symObjAddr: 0x3154, symBinAddr: 0x100007140, symSize: 0x28 }
  - { offsetInCU: 0x8D2F, offset: 0x1B252, size: 0x8, addend: 0x0, symName: __ZNKSt3__117__compressed_pairIPPvRNS_9allocatorIS1_EEE5firstB7v160006Ev, symObjAddr: 0x317C, symBinAddr: 0x100007168, symSize: 0x24 }
  - { offsetInCU: 0x8D53, offset: 0x1B276, size: 0x8, addend: 0x0, symName: __ZNSt3__16vectorIPvNS_9allocatorIS1_EEE11__make_iterB7v160006EPS1_, symObjAddr: 0x31A0, symBinAddr: 0x10000718C, symSize: 0x34 }
  - { offsetInCU: 0x8D86, offset: 0x1B2A9, size: 0x8, addend: 0x0, symName: __ZNSt3__111__wrap_iterIPPvEC1B7v160006EPKvS2_, symObjAddr: 0x31D4, symBinAddr: 0x1000071C0, symSize: 0x3C }
  - { offsetInCU: 0x8DCA, offset: 0x1B2ED, size: 0x8, addend: 0x0, symName: __ZNSt3__111__wrap_iterIPPvEC2B7v160006EPKvS2_, symObjAddr: 0x3210, symBinAddr: 0x1000071FC, symSize: 0x24 }
...
